; Function Attrs: mustprogress nofree norecurse nosync nounwind willreturn memory(none) uwtable
define internal fastcc noundef range(i32 -1, 32) i32 @_ZL14stbi__high_bitj(i32 noundef %0) unnamed_addr #14 {
  %2 = icmp eq i32 %0, 0
  br i1 %2, label %17, label %3

3:                                                ; preds = %1
  %4 = icmp ugt i32 %0, 65535
  %5 = lshr i32 %0, 16
  %spec.select = select i1 %4, i32 %5, i32 %0
  %spec.select23 = select i1 %4, i32 16, i32 0
  %6 = icmp samesign ugt i32 %spec.select, 255
  %7 = or disjoint i32 %spec.select23, 8
  %8 = lshr i32 %spec.select, 8
  %.118 = select i1 %6, i32 %8, i32 %spec.select
  %.1 = select i1 %6, i32 %7, i32 %spec.select23
  %9 = icmp samesign ugt i32 %.118, 15
  %10 = or disjoint i32 %.1, 4
  %11 = lshr i32 %.118, 4
  %.219 = select i1 %9, i32 %11, i32 %.118
  %.2 = select i1 %9, i32 %10, i32 %.1
  %12 = icmp samesign ugt i32 %.219, 3
  %13 = or disjoint i32 %.2, 2
  %14 = lshr i32 %.219, 2
  %.320 = select i1 %12, i32 %14, i32 %.219
  %.3 = select i1 %12, i32 %13, i32 %.2
  %15 = icmp samesign ugt i32 %.320, 1
  %16 = zext i1 %15 to i32
  %.4 = add nuw nsw i32 %.3, %16
  br label %17

17:                                               ; preds = %1, %3
  %.021 = phi i32 [ %.4, %3 ], [ -1, %1 ]
  ret i32 %.021
}